; ModuleID = '4/1419.c'
source_filename = "4/1419.c"
target datalayout = "e-m:e-p270:32:32-p271:32:32-p272:64:64-i64:64-f80:128-n8:16:32:64-S128"
target triple = "x86_64-pc-linux-gnu"

@.str = private unnamed_addr constant [6 x i8] c"%d %d\00", align 1
@.str.1 = private unnamed_addr constant [3 x i8] c"%d\00", align 1
@.str.2 = private unnamed_addr constant [4 x i8] c"%d\0A\00", align 1

; Function Attrs: noinline nounwind uwtable
define dso_local i32 @main() #0 {
  %1 = alloca i32, align 4
  %2 = alloca [100 x [100 x i32]], align 16
  %3 = alloca i32, align 4
  %4 = alloca i32, align 4
  %5 = alloca i32, align 4
  %6 = alloca i32, align 4
  %7 = alloca i32, align 4
  %8 = alloca i64, align 8
  store i32 0, i32* %1, align 4
  store i64 0, i64* %8, align 8
  %9 = call i32 (i8*, ...) @__isoc99_scanf(i8* getelementptr inbounds ([6 x i8], [6 x i8]* @.str, i64 0, i64 0), i32* %3, i32* %4)
  store i32 0, i32* %5, align 4
  br label %10

10:                                               ; preds = %31, %0
  %11 = load i32, i32* %5, align 4
  %12 = load i32, i32* %3, align 4
  %13 = icmp slt i32 %11, %12
  br i1 %13, label %14, label %34

14:                                               ; preds = %10
  store i32 0, i32* %6, align 4
  br label %15

15:                                               ; preds = %27, %14
  %16 = load i32, i32* %6, align 4
  %17 = load i32, i32* %4, align 4
  %18 = icmp slt i32 %16, %17
  br i1 %18, label %19, label %30

19:                                               ; preds = %15
  %20 = load i32, i32* %5, align 4
  %21 = sext i32 %20 to i64
  %22 = getelementptr inbounds [100 x [100 x i32]], [100 x [100 x i32]]* %2, i64 0, i64 %21
  %23 = load i32, i32* %6, align 4
  %24 = sext i32 %23 to i64
  %25 = getelementptr inbounds [100 x i32], [100 x i32]* %22, i64 0, i64 %24
  %26 = call i32 (i8*, ...) @__isoc99_scanf(i8* getelementptr inbounds ([3 x i8], [3 x i8]* @.str.1, i64 0, i64 0), i32* %25)
  br label %27

27:                                               ; preds = %19
  %28 = load i32, i32* %6, align 4
  %29 = add nsw i32 %28, 1
  store i32 %29, i32* %6, align 4
  br label %15

30:                                               ; preds = %15
  br label %31

31:                                               ; preds = %30
  %32 = load i32, i32* %5, align 4
  %33 = add nsw i32 %32, 1
  store i32 %33, i32* %5, align 4
  br label %10

34:                                               ; preds = %10
  store i32 0, i32* %7, align 4
  br label %35

35:                                               ; preds = %84, %34
  %36 = load i32, i32* %7, align 4
  %37 = load i32, i32* %3, align 4
  %38 = load i32, i32* %4, align 4
  %39 = add nsw i32 %37, %38
  %40 = sub nsw i32 %39, 1
  %41 = icmp slt i32 %36, %40
  br i1 %41, label %42, label %87

42:                                               ; preds = %35
  store i32 0, i32* %5, align 4
  br label %43

43:                                               ; preds = %80, %42
  %44 = load i32, i32* %5, align 4
  %45 = load i32, i32* %7, align 4
  %46 = icmp sle i32 %44, %45
  br i1 %46, label %47, label %54

47:                                               ; preds = %43
  %48 = load i64, i64* %8, align 8
  %49 = load i32, i32* %3, align 4
  %50 = load i32, i32* %4, align 4
  %51 = mul nsw i32 %49, %50
  %52 = sext i32 %51 to i64
  %53 = icmp slt i64 %48, %52
  br label %54

54:                                               ; preds = %47, %43
  %55 = phi i1 [ false, %43 ], [ %53, %47 ]
  br i1 %55, label %56, label %83

56:                                               ; preds = %54
  %57 = load i32, i32* %5, align 4
  %58 = load i32, i32* %3, align 4
  %59 = icmp slt i32 %57, %58
  br i1 %59, label %60, label %79

60:                                               ; preds = %56
  %61 = load i32, i32* %7, align 4
  %62 = load i32, i32* %5, align 4
  %63 = sub nsw i32 %61, %62
  %64 = load i32, i32* %4, align 4
  %65 = icmp slt i32 %63, %64
  br i1 %65, label %66, label %79

66:                                               ; preds = %60
  %67 = load i32, i32* %5, align 4
  %68 = sext i32 %67 to i64
  %69 = getelementptr inbounds [100 x [100 x i32]], [100 x [100 x i32]]* %2, i64 0, i64 %68
  %70 = load i32, i32* %7, align 4
  %71 = load i32, i32* %5, align 4
  %72 = sub nsw i32 %70, %71
  %73 = sext i32 %72 to i64
  %74 = getelementptr inbounds [100 x i32], [100 x i32]* %69, i64 0, i64 %73
  %75 = load i32, i32* %74, align 4
  %76 = call i32 (i8*, ...) @printf(i8* getelementptr inbounds ([4 x i8], [4 x i8]* @.str.2, i64 0, i64 0), i32 %75)
  %77 = load i64, i64* %8, align 8
  %78 = add nsw i64 %77, 1
  store i64 %78, i64* %8, align 8
  br label %79

79:                                               ; preds = %66, %60, %56
  br label %80

80:                                               ; preds = %79
  %81 = load i32, i32* %5, align 4
  %82 = add nsw i32 %81, 1
  store i32 %82, i32* %5, align 4
  br label %43

83:                                               ; preds = %54
  br label %84

84:                                               ; preds = %83
  %85 = load i32, i32* %7, align 4
  %86 = add nsw i32 %85, 1
  store i32 %86, i32* %7, align 4
  br label %35

87:                                               ; preds = %35
  ret i32 0
}

declare dso_local i32 @__isoc99_scanf(i8*, ...) #1

declare dso_local i32 @printf(i8*, ...) #1


!llvm.module.flags = !{!0}
!llvm.ident = !{!1}

!0 = !{i32 1, !"wchar_size", i32 4}
!1 = !{!"clang version 10.0.0-4ubuntu1 "}
