; ModuleID = 'source-C-CXX/3/1419.c'
source_filename = "source-C-CXX/3/1419.c"
target datalayout = "e-m:e-p270:32:32-p271:32:32-p272:64:64-i64:64-f80:128-n8:16:32:64-S128"
target triple = "x86_64-pc-linux-gnu"

@.str = private unnamed_addr constant [6 x i8] c"%d %d\00", align 1
@.str.1 = private unnamed_addr constant [3 x i8] c"%d\00", align 1
@.str.2 = private unnamed_addr constant [4 x i8] c"%d\0A\00", align 1

; Function Attrs: nofree nounwind sspstrong uwtable
define dso_local i32 @main() local_unnamed_addr #0 {
  %1 = alloca [100 x [100 x i32]], align 16
  %2 = alloca i32, align 4
  %3 = alloca i32, align 4
  %4 = bitcast [100 x [100 x i32]]* %1 to i8*
  call void @llvm.lifetime.start.p0i8(i64 40000, i8* nonnull %4) #3
  %5 = bitcast i32* %2 to i8*
  call void @llvm.lifetime.start.p0i8(i64 4, i8* nonnull %5) #3
  %6 = bitcast i32* %3 to i8*
  call void @llvm.lifetime.start.p0i8(i64 4, i8* nonnull %6) #3
  %7 = call i32 (i8*, ...) @__isoc99_scanf(i8* getelementptr inbounds ([6 x i8], [6 x i8]* @.str, i64 0, i64 0), i32* nonnull %2, i32* nonnull %3)
  %8 = load i32, i32* %2, align 4, !tbaa !5
  %9 = icmp sgt i32 %8, 0
  %10 = load i32, i32* %3, align 4, !tbaa !5
  %11 = icmp sgt i32 %10, 0
  %12 = select i1 %9, i1 %11, i1 false
  br i1 %12, label %13, label %18

13:                                               ; preds = %0, %34
  %14 = phi i32 [ %35, %34 ], [ %8, %0 ]
  %15 = phi i32 [ %36, %34 ], [ %10, %0 ]
  %16 = phi i64 [ %37, %34 ], [ 0, %0 ]
  %17 = icmp sgt i32 %15, 0
  br i1 %17, label %24, label %34

18:                                               ; preds = %34, %0
  %19 = phi i32 [ %10, %0 ], [ %36, %34 ]
  %20 = phi i32 [ %8, %0 ], [ %35, %34 ]
  %21 = add i32 %20, -1
  %22 = add i32 %21, %19
  %23 = icmp sgt i32 %22, 0
  br i1 %23, label %40, label %85

24:                                               ; preds = %13, %24
  %25 = phi i64 [ %28, %24 ], [ 0, %13 ]
  %26 = getelementptr inbounds [100 x [100 x i32]], [100 x [100 x i32]]* %1, i64 0, i64 %16, i64 %25
  %27 = call i32 (i8*, ...) @__isoc99_scanf(i8* getelementptr inbounds ([3 x i8], [3 x i8]* @.str.1, i64 0, i64 0), i32* nonnull %26)
  %28 = add nuw nsw i64 %25, 1
  %29 = load i32, i32* %3, align 4, !tbaa !5
  %30 = sext i32 %29 to i64
  %31 = icmp slt i64 %28, %30
  br i1 %31, label %24, label %32, !llvm.loop !9

32:                                               ; preds = %24
  %33 = load i32, i32* %2, align 4, !tbaa !5
  br label %34

34:                                               ; preds = %32, %13
  %35 = phi i32 [ %33, %32 ], [ %14, %13 ]
  %36 = phi i32 [ %29, %32 ], [ %15, %13 ]
  %37 = add nuw nsw i64 %16, 1
  %38 = sext i32 %35 to i64
  %39 = icmp slt i64 %37, %38
  br i1 %39, label %13, label %18, !llvm.loop !11

40:                                               ; preds = %18, %75
  %41 = phi i32 [ %76, %75 ], [ %19, %18 ]
  %42 = phi i32 [ %77, %75 ], [ %20, %18 ]
  %43 = phi i64 [ %79, %75 ], [ 0, %18 ]
  %44 = phi i64 [ %84, %75 ], [ 1, %18 ]
  %45 = phi i64 [ %78, %75 ], [ 0, %18 ]
  %46 = mul nsw i32 %41, %42
  %47 = sext i32 %46 to i64
  %48 = icmp slt i64 %45, %47
  br i1 %48, label %49, label %75

49:                                               ; preds = %40, %71
  %50 = phi i64 [ %66, %71 ], [ %45, %40 ]
  %51 = phi i64 [ %67, %71 ], [ 0, %40 ]
  %52 = phi i32 [ %69, %71 ], [ %42, %40 ]
  %53 = phi i32 [ %70, %71 ], [ %41, %40 ]
  %54 = sext i32 %52 to i64
  %55 = icmp slt i64 %51, %54
  br i1 %55, label %56, label %65

56:                                               ; preds = %49
  %57 = sub nsw i64 %43, %51
  %58 = sext i32 %53 to i64
  %59 = icmp slt i64 %57, %58
  br i1 %59, label %60, label %65

60:                                               ; preds = %56
  %61 = getelementptr inbounds [100 x [100 x i32]], [100 x [100 x i32]]* %1, i64 0, i64 %51, i64 %57
  %62 = load i32, i32* %61, align 4, !tbaa !5
  %63 = call i32 (i8*, ...) @printf(i8* nonnull dereferenceable(1) getelementptr inbounds ([4 x i8], [4 x i8]* @.str.2, i64 0, i64 0), i32 %62)
  %64 = add nsw i64 %50, 1
  br label %65

65:                                               ; preds = %49, %56, %60
  %66 = phi i64 [ %64, %60 ], [ %50, %56 ], [ %50, %49 ]
  %67 = add nuw nsw i64 %51, 1
  %68 = icmp eq i64 %67, %44
  %69 = load i32, i32* %2, align 4, !tbaa !5
  %70 = load i32, i32* %3, align 4, !tbaa !5
  br i1 %68, label %75, label %71, !llvm.loop !13

71:                                               ; preds = %65
  %72 = mul nsw i32 %70, %69
  %73 = sext i32 %72 to i64
  %74 = icmp slt i64 %66, %73
  br i1 %74, label %49, label %75

75:                                               ; preds = %71, %65, %40
  %76 = phi i32 [ %41, %40 ], [ %70, %65 ], [ %70, %71 ]
  %77 = phi i32 [ %42, %40 ], [ %69, %65 ], [ %69, %71 ]
  %78 = phi i64 [ %45, %40 ], [ %66, %65 ], [ %66, %71 ]
  %79 = add nuw nsw i64 %43, 1
  %80 = add i32 %77, -1
  %81 = add i32 %80, %76
  %82 = sext i32 %81 to i64
  %83 = icmp slt i64 %79, %82
  %84 = add nuw nsw i64 %44, 1
  br i1 %83, label %40, label %85, !llvm.loop !14

85:                                               ; preds = %75, %18
  call void @llvm.lifetime.end.p0i8(i64 4, i8* nonnull %6) #3
  call void @llvm.lifetime.end.p0i8(i64 4, i8* nonnull %5) #3
  call void @llvm.lifetime.end.p0i8(i64 40000, i8* nonnull %4) #3
  ret i32 0
}

; Function Attrs: argmemonly mustprogress nofree nosync nounwind willreturn
declare void @llvm.lifetime.start.p0i8(i64 immarg, i8* nocapture) #1

; Function Attrs: nofree nounwind
declare noundef i32 @__isoc99_scanf(i8* nocapture noundef readonly, ...) local_unnamed_addr #2

; Function Attrs: nofree nounwind
declare noundef i32 @printf(i8* nocapture noundef readonly, ...) local_unnamed_addr #2

; Function Attrs: argmemonly mustprogress nofree nosync nounwind willreturn
declare void @llvm.lifetime.end.p0i8(i64 immarg, i8* nocapture) #1


!llvm.module.flags = !{!0, !1, !2, !3}
!llvm.ident = !{!4}

!0 = !{i32 1, !"wchar_size", i32 4}
!1 = !{i32 7, !"PIC Level", i32 2}
!2 = !{i32 7, !"PIE Level", i32 2}
!3 = !{i32 7, !"uwtable", i32 1}
!4 = !{!"clang version 13.0.0"}
!5 = !{!6, !6, i64 0}
!6 = !{!"int", !7, i64 0}
!7 = !{!"omnipotent char", !8, i64 0}
!8 = !{!"Simple C/C++ TBAA"}
!9 = distinct !{!9, !10}
!10 = !{!"llvm.loop.mustprogress"}
!11 = distinct !{!11, !10, !12}
!12 = !{!"llvm.loop.unswitch.partial.disable"}
!13 = distinct !{!13, !10}
!14 = distinct !{!14, !10}
